(dp1
S'output'
p2
S"<type 'exceptions.AttributeError'> 'Query' object has no attribute '_tablename'"
p3
sS'layer'
p4
S'/home/hai/Projects/web2py/applications/FinalProject/controllers/profile.py'
p5
sS'code'
p6
S'def index():\n\n\tquery=db.game_play.player_id==auth.user\n\n\tgrid = SQLFORM.smartgrid(db.game_play.player_id==auth.user,\n\t\tconstraints = dict(category=query),\n\t\tlinked_table=[\'game\'],\n\t\tfields=[db.game_play.amount_bet],\n\t\tdeletable=False,\n\t\teditable=False,\n\t\tdetails=False,\n\t\tcsv=False,\n\t\tcreate=False,\n\t\tlinks = [lambda row: A(\'Go\',_href=URL("game_menu","game",args=[row.id]))]\n\t\t)\n\treturn dict(grid=grid)\n\nresponse._vars=response._caller(index)\n'
p7
sS'snapshot'
p8
(dp9
sS'traceback'
p10
S'Traceback (most recent call last):\n  File "/home/hai/Projects/web2py/gluon/restricted.py", line 224, in restricted\n    exec ccode in environment\n  File "/home/hai/Projects/web2py/applications/FinalProject/controllers/profile.py", line 18, in <module>\n  File "/home/hai/Projects/web2py/gluon/globals.py", line 392, in <lambda>\n    self._caller = lambda f: f()\n  File "/home/hai/Projects/web2py/applications/FinalProject/controllers/profile.py", line 14, in index\n    links = [lambda row: A(\'Go\',_href=URL("game_menu","game",args=[row.id]))]\n  File "/home/hai/Projects/web2py/gluon/sqlhtml.py", line 2780, in smartgrid\n    if request.args(len(args)) != table._tablename:\nAttributeError: \'Query\' object has no attribute \'_tablename\'\n'
p11
s.