(dp1
S'output'
p2
S"<type 'exceptions.AttributeError'> 'Field' object has no attribute 'game_name'"
p3
sS'layer'
p4
S'/home/hai/Projects/web2py/applications/FinalProject/controllers/profile.py'
p5
sS'code'
p6
S'def index():\n\n\tgrid = SQLFORM.grid(db.game_play.player_id==auth.user,\n\t\tleft=db.game_play.on(db.game_play.game_id==db.game.id),\n\t\tfields=[db.game_play.amount_bet, db.game_play.game_id.game_name],\n\t\tdeletable=False,\n\t\teditable=False,\n\t\tdetails=False,\n\t\tcsv=False,\n\t\tcreate=False,\n\t\tlinks = [lambda row: A(\'Go\',_href=URL("game_menu","game",args=[row.id]))]\n\t\t)\n\treturn dict(grid=grid)\n\nresponse._vars=response._caller(index)\n'
p7
sS'snapshot'
p8
(dp9
sS'traceback'
p10
S'Traceback (most recent call last):\n  File "/home/hai/Projects/web2py/gluon/restricted.py", line 224, in restricted\n    exec ccode in environment\n  File "/home/hai/Projects/web2py/applications/FinalProject/controllers/profile.py", line 15, in <module>\n  File "/home/hai/Projects/web2py/gluon/globals.py", line 392, in <lambda>\n    self._caller = lambda f: f()\n  File "/home/hai/Projects/web2py/applications/FinalProject/controllers/profile.py", line 5, in index\n    fields=[db.game_play.amount_bet, db.game_play.game_id.game_name],\nAttributeError: \'Field\' object has no attribute \'game_name\'\n'
p11
s.