(dp1
S'output'
p2
S"<type 'exceptions.AttributeError'> 'Rows' object has no attribute '_db'"
p3
sS'layer'
p4
S'/home/hai/Projects/web2py/applications/FinalProject/controllers/game_menu.py'
p5
sS'code'
p6
S"# This controller will be used to display the list of open game to join\n\ndef index():\n\tfirst_name = auth.user.first_name\n\topen_games = db(not db.game.is_over).select(db.game.ALL)\n\tgrid = SQLFORM.grid(db(not db.game.is_over).select(db.game.ALL))\n\treturn dict(message=T('testing' + first_name), open_games=open_games)\nresponse._vars=response._caller(index)\n"
p7
sS'snapshot'
p8
(dp9
sS'traceback'
p10
S'Traceback (most recent call last):\n  File "/home/hai/Projects/web2py/gluon/restricted.py", line 224, in restricted\n    exec ccode in environment\n  File "/home/hai/Projects/web2py/applications/FinalProject/controllers/game_menu.py", line 8, in <module>\n  File "/home/hai/Projects/web2py/gluon/globals.py", line 392, in <lambda>\n    self._caller = lambda f: f()\n  File "/home/hai/Projects/web2py/applications/FinalProject/controllers/game_menu.py", line 6, in index\n    grid = SQLFORM.grid(db(not db.game.is_over).select(db.game.ALL))\n  File "/home/hai/Projects/web2py/gluon/sqlhtml.py", line 1982, in grid\n    db = query._db\nAttributeError: \'Rows\' object has no attribute \'_db\'\n'
p11
s.