(dp1
S'output'
p2
S"<type 'exceptions.TypeError'> 'function' object has no attribute '__getitem__'"
p3
sS'layer'
p4
S'/home/hai/Projects/web2py/applications/FinalProject/controllers/game_menu.py'
p5
sS'code'
p6
S"# This controller will be used to display the list of open game to join\n\ndef index():\n\tfirst_name = auth.user.first_name\n\topen_games = db(not db.game.is_over).select(db.game.ALL)\n\tgrid = SQLFORM.grid(db.game.is_over==False,\n\t\tfields=[db.game.game_name, db.game.creator, db.game.is_over, db.game.date_started, db.game.date_ended],\n\t\tdeletable=False,\n\t\teditable=False,\n\t\tcsv=False,\n\t\tselectable= ('button test', lambda ids : redirect(URL('default', 'mapping_multiple', vars=dict(id=ids))))\n\t\t)\n\treturn dict(message=T('testing' + first_name), open_games=open_games, grid=grid)\nresponse._vars=response._caller(index)\n"
p7
sS'snapshot'
p8
(dp9
sS'traceback'
p10
S'Traceback (most recent call last):\n  File "/home/hai/Projects/web2py/gluon/restricted.py", line 224, in restricted\n    exec ccode in environment\n  File "/home/hai/Projects/web2py/applications/FinalProject/controllers/game_menu.py", line 14, in <module>\n  File "/home/hai/Projects/web2py/gluon/globals.py", line 392, in <lambda>\n    self._caller = lambda f: f()\n  File "/home/hai/Projects/web2py/applications/FinalProject/controllers/game_menu.py", line 11, in index\n    selectable= (\'button test\', lambda ids : redirect(URL(\'default\', \'mapping_multiple\', vars=dict(id=ids))))\n  File "/home/hai/Projects/web2py/gluon/sqlhtml.py", line 2663, in grid\n    submit_text = submit_info[0]\nTypeError: \'function\' object has no attribute \'__getitem__\'\n'
p11
s.