(dp1
S'output'
p2
S"<type 'exceptions.AttributeError'> 'Rows' object has no attribute 'update'"
p3
sS'layer'
p4
S'/home/hai/Projects/web2py/applications/FinalProject/controllers/game_menu.py'
p5
sS'code'
p6
S'# This controller will be used to display the list of open game to join\n\n@auth.requires_login() \ndef index():\n\tfirst_name = auth.user.first_name\n\topen_games = db(not db.game.is_over).select(db.game.ALL)\n\tgrid = SQLFORM.grid(db.game.is_over==False,\n\t\tfields=[db.game.game_name, db.game.creator, db.game.is_over, db.game.date_started, db.game.date_ended],\n\t\tdeletable=False,\n\t\teditable=False,\n\t\tdetails=False,\n\t\tcsv=False,\n\t\tlinks = [lambda row: A(\'Join\',_href=URL("game_menu","join",args=[row.id]))]\n\t\t)\n\treturn dict(message=T(\'testing\' + first_name), open_games=open_games, grid=grid)\n\n@auth.requires_login() \ndef join():\n\tform=FORM(INPUT(_type=\'submit\', _value=\'Yes\'))\n\tform.add_button(\'No\', URL("game_menu","index"))\n\tif form.accepts(request, session):\n\t\tgame = db.game(request.args(0,cast=int))\n\t\tplayer_game = db((db.game_play.player_id == auth.user)&(db.game_play.game_id == game)).select()\n\t\tif not player_game.update(game_id=game):\n\t\t\tplayer_game.insert(game_id=game, player_id=auth.user, amount_bet=0, win=False)\n\t\tredirect(URL("game_menu","game",args=[request.args(0,cast=int)]))\n\treturn dict(form=form)\n\ndef game():\n\tgame = db.game(request.args(0,cast=int)) or redirect(URL("game_menu", "index"))\n\treturn dict(message=T(\'testing\'), game=game)\nresponse._vars=response._caller(join)\n'
p7
sS'snapshot'
p8
(dp9
sS'traceback'
p10
S'Traceback (most recent call last):\n  File "/home/hai/Projects/web2py/gluon/restricted.py", line 224, in restricted\n    exec ccode in environment\n  File "/home/hai/Projects/web2py/applications/FinalProject/controllers/game_menu.py", line 32, in <module>\n  File "/home/hai/Projects/web2py/gluon/globals.py", line 392, in <lambda>\n    self._caller = lambda f: f()\n  File "/home/hai/Projects/web2py/gluon/tools.py", line 3439, in f\n    return action(*a, **b)\n  File "/home/hai/Projects/web2py/applications/FinalProject/controllers/game_menu.py", line 24, in join\n    if not player_game.update(game_id=game):\nAttributeError: \'Rows\' object has no attribute \'update\'\n'
p11
s.