(dp1
S'output'
p2
S"<type 'exceptions.AttributeError'> 'Table' object has no attribute 'game'"
p3
sS'layer'
p4
S'/home/hai/Projects/web2py/applications/FinalProject/controllers/profile.py'
p5
sS'code'
p6
S'def index():\n\n\tgrid = SQLFORM.grid(db.game_play.player_id==auth.user,\n\t\tfields=[db.game_play.game.game_name,db.game_play.amount_bet],\n\t\tdeletable=False,\n\t\teditable=False,\n\t\tdetails=False,\n\t\tcsv=False,\n\t\tcreate=False,\n\t\tlinks = [lambda row: A(\'Join\',_href=URL("game_menu","join",args=[row.id]))]\n\t\t)\n\treturn dict(grid=grid)\n\nresponse._vars=response._caller(index)\n'
p7
sS'snapshot'
p8
(dp9
sS'traceback'
p10
S'Traceback (most recent call last):\n  File "/home/hai/Projects/web2py/gluon/restricted.py", line 224, in restricted\n    exec ccode in environment\n  File "/home/hai/Projects/web2py/applications/FinalProject/controllers/profile.py", line 14, in <module>\n  File "/home/hai/Projects/web2py/gluon/globals.py", line 392, in <lambda>\n    self._caller = lambda f: f()\n  File "/home/hai/Projects/web2py/applications/FinalProject/controllers/profile.py", line 4, in index\n    fields=[db.game_play.game.game_name,db.game_play.amount_bet],\n  File "/home/hai/Projects/web2py/gluon/dal.py", line 9110, in __getitem__\n    return ogetattr(self, str(key))\nAttributeError: \'Table\' object has no attribute \'game\'\n'
p11
s.